target datalayout = "e-m:e-p270:32:32-p271:32:32-p272:64:64-i64:64-i128:128-f80:128-n8:16:32:64-S128"
target triple = "x86_64-pc-linux-gnu"

%struct.UriTextRangeStructW = type { ptr, ptr }

; Function Attrs: nounwind uwtable
define i32 @uriCompareRangeW(ptr noundef %0, ptr noundef %1) #0 {
  %3 = alloca i32, align 4
  %4 = alloca ptr, align 8
  %5 = alloca ptr, align 8
  %6 = alloca i32, align 4
  %7 = alloca i32, align 4
  store ptr %0, ptr %4, align 8, !tbaa !53
  store ptr %1, ptr %5, align 8, !tbaa !53
  call void @llvm.lifetime.start.p0(i64 4, ptr %6) #5
  %8 = load ptr, ptr %4, align 8, !tbaa !53
  %9 = icmp eq ptr %8, null
  br i1 %9, label %13, label %10

10:                                               ; preds = %2
  %11 = load ptr, ptr %5, align 8, !tbaa !53
  %12 = icmp eq ptr %11, null
  br i1 %12, label %13, label %21

13:                                               ; preds = %10, %2
  %14 = load ptr, ptr %4, align 8, !tbaa !53
  %15 = icmp eq ptr %14, null
  %16 = select i1 %15, i32 0, i32 1
  %17 = load ptr, ptr %5, align 8, !tbaa !53
  %18 = icmp eq ptr %17, null
  %19 = select i1 %18, i32 0, i32 1
  %20 = sub nsw i32 %16, %19
  store i32 %20, ptr %3, align 4
  store i32 1, ptr %7, align 4
  br label %103

21:                                               ; preds = %10
  %22 = load ptr, ptr %4, align 8, !tbaa !53
  %23 = getelementptr inbounds nuw %struct.UriTextRangeStructW, ptr %22, i32 0, i32 0
  %24 = load ptr, ptr %23, align 8, !tbaa !55
  %25 = icmp eq ptr %24, null
  br i1 %25, label %31, label %26

26:                                               ; preds = %21
  %27 = load ptr, ptr %5, align 8, !tbaa !53
  %28 = getelementptr inbounds nuw %struct.UriTextRangeStructW, ptr %27, i32 0, i32 0
  %29 = load ptr, ptr %28, align 8, !tbaa !55
  %30 = icmp eq ptr %29, null
  br i1 %30, label %31, label %43

31:                                               ; preds = %26, %21
  %32 = load ptr, ptr %4, align 8, !tbaa !53
  %33 = getelementptr inbounds nuw %struct.UriTextRangeStructW, ptr %32, i32 0, i32 0
  %34 = load ptr, ptr %33, align 8, !tbaa !55
  %35 = icmp eq ptr %34, null
  %36 = select i1 %35, i32 0, i32 1
  %37 = load ptr, ptr %5, align 8, !tbaa !53
  %38 = getelementptr inbounds nuw %struct.UriTextRangeStructW, ptr %37, i32 0, i32 0
  %39 = load ptr, ptr %38, align 8, !tbaa !55
  %40 = icmp eq ptr %39, null
  %41 = select i1 %40, i32 0, i32 1
  %42 = sub nsw i32 %36, %41
  store i32 %42, ptr %3, align 4
  store i32 1, ptr %7, align 4
  br label %103

43:                                               ; preds = %26
  %44 = load ptr, ptr %4, align 8, !tbaa !53
  %45 = getelementptr inbounds nuw %struct.UriTextRangeStructW, ptr %44, i32 0, i32 1
  %46 = load ptr, ptr %45, align 8, !tbaa !58
  %47 = load ptr, ptr %4, align 8, !tbaa !53
  %48 = getelementptr inbounds nuw %struct.UriTextRangeStructW, ptr %47, i32 0, i32 0
  %49 = load ptr, ptr %48, align 8, !tbaa !55
  %50 = ptrtoint ptr %46 to i64
  %51 = ptrtoint ptr %49 to i64
  %52 = sub i64 %50, %51
  %53 = sdiv exact i64 %52, 4
  %54 = trunc i64 %53 to i32
  %55 = load ptr, ptr %5, align 8, !tbaa !53
  %56 = getelementptr inbounds nuw %struct.UriTextRangeStructW, ptr %55, i32 0, i32 1
  %57 = load ptr, ptr %56, align 8, !tbaa !58
  %58 = load ptr, ptr %5, align 8, !tbaa !53
  %59 = getelementptr inbounds nuw %struct.UriTextRangeStructW, ptr %58, i32 0, i32 0
  %60 = load ptr, ptr %59, align 8, !tbaa !55
  %61 = ptrtoint ptr %57 to i64
  %62 = ptrtoint ptr %60 to i64
  %63 = sub i64 %61, %62
  %64 = sdiv exact i64 %63, 4
  %65 = trunc i64 %64 to i32
  %66 = sub nsw i32 %54, %65
  store i32 %66, ptr %6, align 4, !tbaa !14
  %67 = load i32, ptr %6, align 4, !tbaa !14
  %68 = icmp sgt i32 %67, 0
  br i1 %68, label %69, label %70

69:                                               ; preds = %43
  store i32 1, ptr %3, align 4
  store i32 1, ptr %7, align 4
  br label %103

70:                                               ; preds = %43
  %71 = load i32, ptr %6, align 4, !tbaa !14
  %72 = icmp slt i32 %71, 0
  br i1 %72, label %73, label %74

73:                                               ; preds = %70
  store i32 -1, ptr %3, align 4
  store i32 1, ptr %7, align 4
  br label %103

74:                                               ; preds = %70
  br label %75

75:                                               ; preds = %74
  %76 = load ptr, ptr %4, align 8, !tbaa !53
  %77 = getelementptr inbounds nuw %struct.UriTextRangeStructW, ptr %76, i32 0, i32 0
  %78 = load ptr, ptr %77, align 8, !tbaa !55
  %79 = load ptr, ptr %5, align 8, !tbaa !53
  %80 = getelementptr inbounds nuw %struct.UriTextRangeStructW, ptr %79, i32 0, i32 0
  %81 = load ptr, ptr %80, align 8, !tbaa !55
  %82 = load ptr, ptr %4, align 8, !tbaa !53
  %83 = getelementptr inbounds nuw %struct.UriTextRangeStructW, ptr %82, i32 0, i32 1
  %84 = load ptr, ptr %83, align 8, !tbaa !58
  %85 = load ptr, ptr %4, align 8, !tbaa !53
  %86 = getelementptr inbounds nuw %struct.UriTextRangeStructW, ptr %85, i32 0, i32 0
  %87 = load ptr, ptr %86, align 8, !tbaa !55
  %88 = ptrtoint ptr %84 to i64
  %89 = ptrtoint ptr %87 to i64
  %90 = sub i64 %88, %89
  %91 = sdiv exact i64 %90, 4
  %92 = call i32 @wcsncmp(ptr noundef %78, ptr noundef %81, i64 noundef %91) #6
  store i32 %92, ptr %6, align 4, !tbaa !14
  %93 = load i32, ptr %6, align 4, !tbaa !14
  %94 = icmp sgt i32 %93, 0
  br i1 %94, label %95, label %96

95:                                               ; preds = %75
  store i32 1, ptr %3, align 4
  store i32 1, ptr %7, align 4
  br label %103

96:                                               ; preds = %75
  %97 = load i32, ptr %6, align 4, !tbaa !14
  %98 = icmp slt i32 %97, 0
  br i1 %98, label %99, label %100

99:                                               ; preds = %96
  store i32 -1, ptr %3, align 4
  store i32 1, ptr %7, align 4
  br label %103

100:                                              ; preds = %96
  br label %101

101:                                              ; preds = %100
  %102 = load i32, ptr %6, align 4, !tbaa !14
  store i32 %102, ptr %3, align 4
  store i32 1, ptr %7, align 4
  br label %103

103:                                              ; preds = %101, %99, %95, %73, %69, %31, %13
  call void @llvm.lifetime.end.p0(i64 4, ptr %6) #5
  %104 = load i32, ptr %3, align 4
  ret i32 %104
}