; Function Attrs: mustprogress nofree nounwind willreturn memory(read) uwtable
define range(i32 -1, 2) i32 @uriCompareRangeW(ptr noundef readonly captures(address_is_null) %0, ptr noundef readonly captures(address_is_null) %1) local_unnamed_addr #8 {
  %3 = icmp eq ptr %0, null
  %4 = icmp eq ptr %1, null
  %or.cond = or i1 %3, %4
  br i1 %or.cond, label %5, label %8

5:                                                ; preds = %2
  %not. = xor i1 %3, true
  %6 = zext i1 %not. to i32
  %not.28 = xor i1 %4, true
  %.neg29 = sext i1 %not.28 to i32
  %7 = add nsw i32 %.neg29, %6
  br label %40

8:                                                ; preds = %2
  %9 = load ptr, ptr %0, align 8, !tbaa !41
  %10 = icmp eq ptr %9, null
  %.pre = load ptr, ptr %1, align 8, !tbaa !41
  %11 = icmp eq ptr %.pre, null
  %or.cond30 = select i1 %10, i1 true, i1 %11
  br i1 %or.cond30, label %12, label %17

12:                                               ; preds = %8
  %13 = icmp ne ptr %9, null
  %14 = zext i1 %13 to i32
  %15 = icmp ne ptr %.pre, null
  %.neg = sext i1 %15 to i32
  %16 = add nsw i32 %.neg, %14
  br label %40

17:                                               ; preds = %8
  %18 = getelementptr inbounds nuw i8, ptr %0, i64 8
  %19 = load ptr, ptr %18, align 8, !tbaa !44
  %20 = ptrtoint ptr %19 to i64
  %21 = ptrtoint ptr %9 to i64
  %22 = sub i64 %20, %21
  %23 = ashr exact i64 %22, 2
  %24 = trunc i64 %23 to i32
  %25 = getelementptr inbounds nuw i8, ptr %1, i64 8
  %26 = load ptr, ptr %25, align 8, !tbaa !44
  %27 = ptrtoint ptr %26 to i64
  %28 = ptrtoint ptr %.pre to i64
  %29 = sub i64 %27, %28
  %30 = lshr exact i64 %29, 2
  %31 = trunc i64 %30 to i32
  %32 = sub nsw i32 %24, %31
  %33 = icmp sgt i32 %32, 0
  br i1 %33, label %40, label %34

34:                                               ; preds = %17
  %35 = icmp slt i32 %32, 0
  br i1 %35, label %40, label %36

36:                                               ; preds = %34
  %37 = tail call i32 @wcsncmp(ptr noundef nonnull %9, ptr noundef nonnull %.pre, i64 noundef %23) #10
  %38 = icmp sgt i32 %37, 0
  br i1 %38, label %40, label %39

39:                                               ; preds = %36
  %.not = icmp ne i32 %37, 0
  %. = sext i1 %.not to i32
  br label %40

40:                                               ; preds = %39, %36, %34, %17, %12, %5
  %.0 = phi i32 [ %7, %5 ], [ %16, %12 ], [ 1, %17 ], [ -1, %34 ], [ 1, %36 ], [ %., %39 ]
  ret i32 %.0
}